; Function Attrs: mustprogress uwtable
define hidden void @_ZN5ceres8internal10ThreadPool14ThreadMainLoopEv(ptr noundef nonnull align 8 dereferenceable(240) %0) #3 align 2 personality ptr @__gxx_personality_v0 {
  %2 = alloca %"class.std::function", align 8
  call void @llvm.lifetime.start.p0(i64 32, ptr nonnull %2) #18
  call void @llvm.memset.p0.i64(ptr noundef nonnull align 8 dereferenceable(32) %2, i8 0, i64 32, i1 false)
  %3 = getelementptr inbounds nuw i8, ptr %2, i64 16
  %4 = getelementptr inbounds nuw i8, ptr %2, i64 24
  br label %_ZNKSt8functionIFvvEEclEv.exit

_ZNKSt8functionIFvvEEclEv.exit:                   ; preds = %10, %1
  %5 = invoke noundef zeroext i1 @_ZN5ceres8internal15ConcurrentQueueISt8functionIFvvEEE4WaitEPS4_(ptr noundef nonnull align 8 dereferenceable(169) %0, ptr noundef nonnull %2)
          to label %6 unwind label %.loopexit

6:                                                ; preds = %_ZNKSt8functionIFvvEEclEv.exit
  %7 = load ptr, ptr %3, align 8, !tbaa !45
  %.not.i.i = icmp eq ptr %7, null
  br i1 %5, label %8, label %19

8:                                                ; preds = %6
  br i1 %.not.i.i, label %9, label %10

9:                                                ; preds = %8
  invoke void @_ZSt25__throw_bad_function_callv() #19
          to label %.noexc unwind label %.loopexit.split-lp

.noexc:                                           ; preds = %9
  unreachable

10:                                               ; preds = %8
  %11 = load ptr, ptr %4, align 8, !tbaa !47
  invoke void %11(ptr noundef nonnull align 8 dereferenceable(32) %2)
          to label %_ZNKSt8functionIFvvEEclEv.exit unwind label %.loopexit

.loopexit:                                        ; preds = %_ZNKSt8functionIFvvEEclEv.exit, %10
  %lpad.loopexit = landingpad { ptr, i32 }
          cleanup
  br label %12

.loopexit.split-lp:                               ; preds = %9
  %lpad.loopexit.split-lp = landingpad { ptr, i32 }
          cleanup
  br label %12

12:                                               ; preds = %.loopexit.split-lp, %.loopexit
  %lpad.phi = phi { ptr, i32 } [ %lpad.loopexit, %.loopexit ], [ %lpad.loopexit.split-lp, %.loopexit.split-lp ]
  %13 = load ptr, ptr %3, align 8, !tbaa !45
  %.not.i = icmp eq ptr %13, null
  br i1 %.not.i, label %_ZNSt14_Function_baseD2Ev.exit, label %14

14:                                               ; preds = %12
  %15 = invoke noundef zeroext i1 %13(ptr noundef nonnull align 8 dereferenceable(32) %2, ptr noundef nonnull align 8 dereferenceable(32) %2, i32 noundef 3)
          to label %_ZNSt14_Function_baseD2Ev.exit unwind label %16

16:                                               ; preds = %14
  %17 = landingpad { ptr, i32 }
          catch ptr null
  %18 = extractvalue { ptr, i32 } %17, 0
  call void @__clang_call_terminate(ptr %18) #20
  unreachable

_ZNSt14_Function_baseD2Ev.exit:                   ; preds = %12, %14
  call void @llvm.lifetime.end.p0(i64 32, ptr nonnull %2) #18
  resume { ptr, i32 } %lpad.phi

19:                                               ; preds = %6
  br i1 %.not.i.i, label %_ZNSt14_Function_baseD2Ev.exit4, label %20

20:                                               ; preds = %19
  %21 = invoke noundef zeroext i1 %7(ptr noundef nonnull align 8 dereferenceable(32) %2, ptr noundef nonnull align 8 dereferenceable(32) %2, i32 noundef 3)
          to label %_ZNSt14_Function_baseD2Ev.exit4 unwind label %22

22:                                               ; preds = %20
  %23 = landingpad { ptr, i32 }
          catch ptr null
  %24 = extractvalue { ptr, i32 } %23, 0
  call void @__clang_call_terminate(ptr %24) #20
  unreachable

_ZNSt14_Function_baseD2Ev.exit4:                  ; preds = %19, %20
  call void @llvm.lifetime.end.p0(i64 32, ptr nonnull %2) #18
  ret void
}